#include <math.h>
#include <stdio.h>
#include <stdlib.h>
#include <string.h>


int main()
{
	int m,n,i,j,k;
	int *a[100];
	scanf("%d%d",&m,&n);
	for(i=0;i<m;i++)
		*(a+i)=(int*)malloc(n*sizeof(int));
	for(i=0;i<m;i++)
		for(j=0;j<n;j++)
			scanf("%d",*(a+i)+j);
	for(k=0;k<n;k++)
	{
		i=0;j=k;
		do
		{
			printf("%d\n",*(*(a+i)+j));
			i++;j--;
		}while(j>=0&&i<m);
	}
	if(m>=2)
	{
		for(k=1;k<m;k++)
		{
			i=k;j=n-1;
			do
			{
			    printf("%d\n",*(*(a+i)+j));
			    i++;j--;
			}while(j>=0&&i<m);
		}
	}
	return 0;
}